target datalayout = "e-m:e-p270:32:32-p271:32:32-p272:64:64-i64:64-i128:128-f80:128-n8:16:32:64-S128"
target triple = "x86_64-pc-linux-gnu"

%struct.thpool_ = type { ptr, i32, i32, %union.pthread_mutex_t, %union.pthread_cond_t, %struct.jobqueue }
%union.pthread_mutex_t = type { %struct.__pthread_mutex_s }
%struct.__pthread_mutex_s = type { i32, i32, i32, i32, i32, i16, i16, %struct.__pthread_internal_list }
%struct.__pthread_internal_list = type { ptr, ptr }
%union.pthread_cond_t = type { %struct.__pthread_cond_s }
%struct.__pthread_cond_s = type { %union.__atomic_wide_counter, %union.__atomic_wide_counter, [2 x i32], [2 x i32], i32, i32, [2 x i32] }
%union.__atomic_wide_counter = type { i64 }
%struct.jobqueue = type { %union.pthread_mutex_t, ptr, ptr, ptr, i32 }
%struct.thread = type { i32, i64, ptr }

; Function Attrs: nounwind uwtable
define dso_local void @thpool_pause(ptr noundef %0) #0 {
  %2 = alloca ptr, align 8
  %3 = alloca i32, align 4
  store ptr %0, ptr %2, align 8
  store i32 0, ptr %3, align 4
  br label %4

4:                                                ; preds = %21, %1
  %5 = load i32, ptr %3, align 4
  %6 = load ptr, ptr %2, align 8
  %7 = getelementptr inbounds %struct.thpool_, ptr %6, i32 0, i32 1
  %8 = load volatile i32, ptr %7, align 8
  %9 = icmp slt i32 %5, %8
  br i1 %9, label %10, label %24

10:                                               ; preds = %4
  %11 = load ptr, ptr %2, align 8
  %12 = getelementptr inbounds %struct.thpool_, ptr %11, i32 0, i32 0
  %13 = load ptr, ptr %12, align 8
  %14 = load i32, ptr %3, align 4
  %15 = sext i32 %14 to i64
  %16 = getelementptr inbounds ptr, ptr %13, i64 %15
  %17 = load ptr, ptr %16, align 8
  %18 = getelementptr inbounds %struct.thread, ptr %17, i32 0, i32 1
  %19 = load i64, ptr %18, align 8
  %20 = call i32 @pthread_kill(i64 noundef %19, i32 noundef 10) #8
  br label %21

21:                                               ; preds = %10
  %22 = load i32, ptr %3, align 4
  %23 = add nsw i32 %22, 1
  store i32 %23, ptr %3, align 4
  br label %4

24:                                               ; preds = %4
  ret void
}